target datalayout = "e-m:e-p270:32:32-p271:32:32-p272:64:64-i64:64-i128:128-f80:128-n8:16:32:64-S128"
target triple = "x86_64-pc-linux-gnu"

%struct.MpegTSSection = type { i32, i32, i32, ptr, ptr }

; Function Attrs: alwaysinline nounwind willreturn memory(none) uwtable
define internal i32 @av_bswap32(i32 noundef %0) #1 {
  %2 = alloca i32, align 4
  store i32 %0, ptr %2, align 4, !tbaa !59
  %3 = load i32, ptr %2, align 4, !tbaa !59
  %4 = shl i32 %3, 8
  %5 = and i32 %4, 65280
  %6 = load i32, ptr %2, align 4, !tbaa !59
  %7 = lshr i32 %6, 8
  %8 = and i32 %7, 255
  %9 = or i32 %5, %8
  %10 = shl i32 %9, 16
  %11 = load i32, ptr %2, align 4, !tbaa !59
  %12 = lshr i32 %11, 16
  %13 = shl i32 %12, 8
  %14 = and i32 %13, 65280
  %15 = load i32, ptr %2, align 4, !tbaa !59
  %16 = lshr i32 %15, 16
  %17 = lshr i32 %16, 8
  %18 = and i32 %17, 255
  %19 = or i32 %14, %18
  %20 = or i32 %10, %19
  ret i32 %20
}

; Function Attrs: nounwind uwtable
define internal void @mpegts_write_section(ptr noundef %0, ptr noundef %1, i32 noundef %2) #0 {
  %4 = alloca ptr, align 8
  %5 = alloca ptr, align 8
  %6 = alloca i32, align 4
  %7 = alloca i32, align 4
  %8 = alloca [188 x i8], align 16
  %9 = alloca ptr, align 8
  %10 = alloca ptr, align 8
  %11 = alloca i32, align 4
  %12 = alloca i32, align 4
  %13 = alloca i32, align 4
  %14 = alloca i32, align 4
  store ptr %0, ptr %4, align 8, !tbaa !223
  store ptr %1, ptr %5, align 8, !tbaa !13
  store i32 %2, ptr %6, align 4, !tbaa !59
  call void @llvm.lifetime.start.p0(i64 4, ptr %7) #13
  call void @llvm.lifetime.start.p0(i64 188, ptr %8) #13
  call void @llvm.lifetime.start.p0(i64 8, ptr %9) #13
  call void @llvm.lifetime.start.p0(i64 8, ptr %10) #13
  call void @llvm.lifetime.start.p0(i64 4, ptr %11) #13
  call void @llvm.lifetime.start.p0(i64 4, ptr %12) #13
  call void @llvm.lifetime.start.p0(i64 4, ptr %13) #13
  call void @llvm.lifetime.start.p0(i64 4, ptr %14) #13
  %15 = call ptr @av_crc_get_table(i32 noundef 3)
  %16 = load ptr, ptr %5, align 8, !tbaa !13
  %17 = load i32, ptr %6, align 4, !tbaa !59
  %18 = sub nsw i32 %17, 4
  %19 = sext i32 %18 to i64
  %20 = call i32 @av_crc(ptr noundef %15, i32 noundef -1, ptr noundef %16, i64 noundef %19) #15
  %21 = call i32 @av_bswap32(i32 noundef %20) #12
  store i32 %21, ptr %7, align 4, !tbaa !59
  %22 = load i32, ptr %7, align 4, !tbaa !59
  %23 = lshr i32 %22, 24
  %24 = and i32 %23, 255
  %25 = trunc i32 %24 to i8
  %26 = load ptr, ptr %5, align 8, !tbaa !13
  %27 = load i32, ptr %6, align 4, !tbaa !59
  %28 = sub nsw i32 %27, 4
  %29 = sext i32 %28 to i64
  %30 = getelementptr inbounds i8, ptr %26, i64 %29
  store i8 %25, ptr %30, align 1, !tbaa !23
  %31 = load i32, ptr %7, align 4, !tbaa !59
  %32 = lshr i32 %31, 16
  %33 = and i32 %32, 255
  %34 = trunc i32 %33 to i8
  %35 = load ptr, ptr %5, align 8, !tbaa !13
  %36 = load i32, ptr %6, align 4, !tbaa !59
  %37 = sub nsw i32 %36, 3
  %38 = sext i32 %37 to i64
  %39 = getelementptr inbounds i8, ptr %35, i64 %38
  store i8 %34, ptr %39, align 1, !tbaa !23
  %40 = load i32, ptr %7, align 4, !tbaa !59
  %41 = lshr i32 %40, 8
  %42 = and i32 %41, 255
  %43 = trunc i32 %42 to i8
  %44 = load ptr, ptr %5, align 8, !tbaa !13
  %45 = load i32, ptr %6, align 4, !tbaa !59
  %46 = sub nsw i32 %45, 2
  %47 = sext i32 %46 to i64
  %48 = getelementptr inbounds i8, ptr %44, i64 %47
  store i8 %43, ptr %48, align 1, !tbaa !23
  %49 = load i32, ptr %7, align 4, !tbaa !59
  %50 = and i32 %49, 255
  %51 = trunc i32 %50 to i8
  %52 = load ptr, ptr %5, align 8, !tbaa !13
  %53 = load i32, ptr %6, align 4, !tbaa !59
  %54 = sub nsw i32 %53, 1
  %55 = sext i32 %54 to i64
  %56 = getelementptr inbounds i8, ptr %52, i64 %55
  store i8 %51, ptr %56, align 1, !tbaa !23
  %57 = load ptr, ptr %5, align 8, !tbaa !13
  store ptr %57, ptr %9, align 8, !tbaa !13
  br label %58

58:                                               ; preds = %161, %3
  %59 = load i32, ptr %6, align 4, !tbaa !59
  %60 = icmp sgt i32 %59, 0
  br i1 %60, label %61, label %174

61:                                               ; preds = %58
  %62 = load ptr, ptr %5, align 8, !tbaa !13
  %63 = load ptr, ptr %9, align 8, !tbaa !13
  %64 = icmp eq ptr %62, %63
  %65 = zext i1 %64 to i32
  store i32 %65, ptr %11, align 4, !tbaa !59
  %66 = getelementptr inbounds [188 x i8], ptr %8, i64 0, i64 0
  store ptr %66, ptr %10, align 8, !tbaa !13
  %67 = load ptr, ptr %10, align 8, !tbaa !13
  %68 = getelementptr inbounds nuw i8, ptr %67, i32 1
  store ptr %68, ptr %10, align 8, !tbaa !13
  store i8 71, ptr %67, align 1, !tbaa !23
  %69 = load ptr, ptr %4, align 8, !tbaa !223
  %70 = getelementptr inbounds nuw %struct.MpegTSSection, ptr %69, i32 0, i32 0
  %71 = load i32, ptr %70, align 8, !tbaa !225
  %72 = ashr i32 %71, 8
  store i32 %72, ptr %12, align 4, !tbaa !59
  %73 = load i32, ptr %11, align 4, !tbaa !59
  %74 = icmp ne i32 %73, 0
  br i1 %74, label %75, label %78

75:                                               ; preds = %61
  %76 = load i32, ptr %12, align 4, !tbaa !59
  %77 = or i32 %76, 64
  store i32 %77, ptr %12, align 4, !tbaa !59
  br label %78

78:                                               ; preds = %75, %61
  %79 = load i32, ptr %12, align 4, !tbaa !59
  %80 = trunc i32 %79 to i8
  %81 = load ptr, ptr %10, align 8, !tbaa !13
  %82 = getelementptr inbounds nuw i8, ptr %81, i32 1
  store ptr %82, ptr %10, align 8, !tbaa !13
  store i8 %80, ptr %81, align 1, !tbaa !23
  %83 = load ptr, ptr %4, align 8, !tbaa !223
  %84 = getelementptr inbounds nuw %struct.MpegTSSection, ptr %83, i32 0, i32 0
  %85 = load i32, ptr %84, align 8, !tbaa !225
  %86 = trunc i32 %85 to i8
  %87 = load ptr, ptr %10, align 8, !tbaa !13
  %88 = getelementptr inbounds nuw i8, ptr %87, i32 1
  store ptr %88, ptr %10, align 8, !tbaa !13
  store i8 %86, ptr %87, align 1, !tbaa !23
  %89 = load ptr, ptr %4, align 8, !tbaa !223
  %90 = getelementptr inbounds nuw %struct.MpegTSSection, ptr %89, i32 0, i32 1
  %91 = load i32, ptr %90, align 4, !tbaa !226
  %92 = add nsw i32 %91, 1
  %93 = and i32 %92, 15
  %94 = load ptr, ptr %4, align 8, !tbaa !223
  %95 = getelementptr inbounds nuw %struct.MpegTSSection, ptr %94, i32 0, i32 1
  store i32 %93, ptr %95, align 4, !tbaa !226
  %96 = load ptr, ptr %4, align 8, !tbaa !223
  %97 = getelementptr inbounds nuw %struct.MpegTSSection, ptr %96, i32 0, i32 1
  %98 = load i32, ptr %97, align 4, !tbaa !226
  %99 = or i32 16, %98
  %100 = trunc i32 %99 to i8
  %101 = load ptr, ptr %10, align 8, !tbaa !13
  %102 = getelementptr inbounds nuw i8, ptr %101, i32 1
  store ptr %102, ptr %10, align 8, !tbaa !13
  store i8 %100, ptr %101, align 1, !tbaa !23
  %103 = load ptr, ptr %4, align 8, !tbaa !223
  %104 = getelementptr inbounds nuw %struct.MpegTSSection, ptr %103, i32 0, i32 2
  %105 = load i32, ptr %104, align 8, !tbaa !227
  %106 = icmp ne i32 %105, 0
  br i1 %106, label %107, label %120

107:                                              ; preds = %78
  %108 = load ptr, ptr %10, align 8, !tbaa !13
  %109 = getelementptr inbounds i8, ptr %108, i64 -1
  %110 = load i8, ptr %109, align 1, !tbaa !23
  %111 = zext i8 %110 to i32
  %112 = or i32 %111, 32
  %113 = trunc i32 %112 to i8
  store i8 %113, ptr %109, align 1, !tbaa !23
  %114 = load ptr, ptr %10, align 8, !tbaa !13
  %115 = getelementptr inbounds nuw i8, ptr %114, i32 1
  store ptr %115, ptr %10, align 8, !tbaa !13
  store i8 1, ptr %114, align 1, !tbaa !23
  %116 = load ptr, ptr %10, align 8, !tbaa !13
  %117 = getelementptr inbounds nuw i8, ptr %116, i32 1
  store ptr %117, ptr %10, align 8, !tbaa !13
  store i8 -128, ptr %116, align 1, !tbaa !23
  %118 = load ptr, ptr %4, align 8, !tbaa !223
  %119 = getelementptr inbounds nuw %struct.MpegTSSection, ptr %118, i32 0, i32 2
  store i32 0, ptr %119, align 8, !tbaa !227
  br label %120

120:                                              ; preds = %107, %78
  %121 = load i32, ptr %11, align 4, !tbaa !59
  %122 = icmp ne i32 %121, 0
  br i1 %122, label %123, label %126

123:                                              ; preds = %120
  %124 = load ptr, ptr %10, align 8, !tbaa !13
  %125 = getelementptr inbounds nuw i8, ptr %124, i32 1
  store ptr %125, ptr %10, align 8, !tbaa !13
  store i8 0, ptr %124, align 1, !tbaa !23
  br label %126

126:                                              ; preds = %123, %120
  %127 = load ptr, ptr %10, align 8, !tbaa !13
  %128 = getelementptr inbounds [188 x i8], ptr %8, i64 0, i64 0
  %129 = ptrtoint ptr %127 to i64
  %130 = ptrtoint ptr %128 to i64
  %131 = sub i64 %129, %130
  %132 = sub nsw i64 188, %131
  %133 = trunc i64 %132 to i32
  store i32 %133, ptr %13, align 4, !tbaa !59
  %134 = load i32, ptr %13, align 4, !tbaa !59
  %135 = load i32, ptr %6, align 4, !tbaa !59
  %136 = icmp sgt i32 %134, %135
  br i1 %136, label %137, label %139

137:                                              ; preds = %126
  %138 = load i32, ptr %6, align 4, !tbaa !59
  store i32 %138, ptr %13, align 4, !tbaa !59
  br label %139

139:                                              ; preds = %137, %126
  %140 = load ptr, ptr %10, align 8, !tbaa !13
  %141 = load ptr, ptr %9, align 8, !tbaa !13
  %142 = load i32, ptr %13, align 4, !tbaa !59
  %143 = sext i32 %142 to i64
  call void @llvm.memcpy.p0.p0.i64(ptr align 1 %140, ptr align 1 %141, i64 %143, i1 false)
  %144 = load i32, ptr %13, align 4, !tbaa !59
  %145 = load ptr, ptr %10, align 8, !tbaa !13
  %146 = sext i32 %144 to i64
  %147 = getelementptr inbounds i8, ptr %145, i64 %146
  store ptr %147, ptr %10, align 8, !tbaa !13
  %148 = load ptr, ptr %10, align 8, !tbaa !13
  %149 = getelementptr inbounds [188 x i8], ptr %8, i64 0, i64 0
  %150 = ptrtoint ptr %148 to i64
  %151 = ptrtoint ptr %149 to i64
  %152 = sub i64 %150, %151
  %153 = sub nsw i64 188, %152
  %154 = trunc i64 %153 to i32
  store i32 %154, ptr %14, align 4, !tbaa !59
  %155 = load i32, ptr %14, align 4, !tbaa !59
  %156 = icmp sgt i32 %155, 0
  br i1 %156, label %157, label %161

157:                                              ; preds = %139
  %158 = load ptr, ptr %10, align 8, !tbaa !13
  %159 = load i32, ptr %14, align 4, !tbaa !59
  %160 = sext i32 %159 to i64
  call void @llvm.memset.p0.i64(ptr align 1 %158, i8 -1, i64 %160, i1 false)
  br label %161

161:                                              ; preds = %157, %139
  %162 = load ptr, ptr %4, align 8, !tbaa !223
  %163 = getelementptr inbounds nuw %struct.MpegTSSection, ptr %162, i32 0, i32 3
  %164 = load ptr, ptr %163, align 8, !tbaa !228
  %165 = load ptr, ptr %4, align 8, !tbaa !223
  %166 = getelementptr inbounds [188 x i8], ptr %8, i64 0, i64 0
  call void %164(ptr noundef %165, ptr noundef %166)
  %167 = load i32, ptr %13, align 4, !tbaa !59
  %168 = load ptr, ptr %9, align 8, !tbaa !13
  %169 = sext i32 %167 to i64
  %170 = getelementptr inbounds i8, ptr %168, i64 %169
  store ptr %170, ptr %9, align 8, !tbaa !13
  %171 = load i32, ptr %13, align 4, !tbaa !59
  %172 = load i32, ptr %6, align 4, !tbaa !59
  %173 = sub nsw i32 %172, %171
  store i32 %173, ptr %6, align 4, !tbaa !59
  br label %58, !llvm.loop !229

174:                                              ; preds = %58
  call void @llvm.lifetime.end.p0(i64 4, ptr %14) #13
  call void @llvm.lifetime.end.p0(i64 4, ptr %13) #13
  call void @llvm.lifetime.end.p0(i64 4, ptr %12) #13
  call void @llvm.lifetime.end.p0(i64 4, ptr %11) #13
  call void @llvm.lifetime.end.p0(i64 8, ptr %10) #13
  call void @llvm.lifetime.end.p0(i64 8, ptr %9) #13
  call void @llvm.lifetime.end.p0(i64 188, ptr %8) #13
  call void @llvm.lifetime.end.p0(i64 4, ptr %7) #13
  ret void
}

; Function Attrs: inlinehint nounwind uwtable
define internal void @put16(ptr noundef %0, i32 noundef %1) #9 {
  %3 = alloca ptr, align 8
  %4 = alloca i32, align 4
  %5 = alloca ptr, align 8
  store ptr %0, ptr %3, align 8, !tbaa !221
  store i32 %1, ptr %4, align 4, !tbaa !59
  call void @llvm.lifetime.start.p0(i64 8, ptr %5) #13
  %6 = load ptr, ptr %3, align 8, !tbaa !221
  %7 = load ptr, ptr %6, align 8, !tbaa !13
  store ptr %7, ptr %5, align 8, !tbaa !13
  %8 = load i32, ptr %4, align 4, !tbaa !59
  %9 = ashr i32 %8, 8
  %10 = trunc i32 %9 to i8
  %11 = load ptr, ptr %5, align 8, !tbaa !13
  %12 = getelementptr inbounds nuw i8, ptr %11, i32 1
  store ptr %12, ptr %5, align 8, !tbaa !13
  store i8 %10, ptr %11, align 1, !tbaa !23
  %13 = load i32, ptr %4, align 4, !tbaa !59
  %14 = trunc i32 %13 to i8
  %15 = load ptr, ptr %5, align 8, !tbaa !13
  %16 = getelementptr inbounds nuw i8, ptr %15, i32 1
  store ptr %16, ptr %5, align 8, !tbaa !13
  store i8 %14, ptr %15, align 1, !tbaa !23
  %17 = load ptr, ptr %5, align 8, !tbaa !13
  %18 = load ptr, ptr %3, align 8, !tbaa !221
  store ptr %17, ptr %18, align 8, !tbaa !13
  call void @llvm.lifetime.end.p0(i64 8, ptr %5) #13
  ret void
}

; Function Attrs: nounwind uwtable
define internal i32 @mpegts_write_section1(ptr noundef %0, i32 noundef %1, i32 noundef %2, i32 noundef %3, i32 noundef %4, i32 noundef %5, ptr noundef %6, i32 noundef %7) #0 {
  %9 = alloca i32, align 4
  %10 = alloca ptr, align 8
  %11 = alloca i32, align 4
  %12 = alloca i32, align 4
  %13 = alloca i32, align 4
  %14 = alloca i32, align 4
  %15 = alloca i32, align 4
  %16 = alloca ptr, align 8
  %17 = alloca i32, align 4
  %18 = alloca [1024 x i8], align 16
  %19 = alloca ptr, align 8
  %20 = alloca i32, align 4
  %21 = alloca i32, align 4
  %22 = alloca i32, align 4
  store ptr %0, ptr %10, align 8, !tbaa !223
  store i32 %1, ptr %11, align 4, !tbaa !59
  store i32 %2, ptr %12, align 4, !tbaa !59
  store i32 %3, ptr %13, align 4, !tbaa !59
  store i32 %4, ptr %14, align 4, !tbaa !59
  store i32 %5, ptr %15, align 4, !tbaa !59
  store ptr %6, ptr %16, align 8, !tbaa !13
  store i32 %7, ptr %17, align 4, !tbaa !59
  call void @llvm.lifetime.start.p0(i64 1024, ptr %18) #13
  call void @llvm.lifetime.start.p0(i64 8, ptr %19) #13
  call void @llvm.lifetime.start.p0(i64 4, ptr %20) #13
  call void @llvm.lifetime.start.p0(i64 4, ptr %21) #13
  %23 = load i32, ptr %11, align 4, !tbaa !59
  %24 = icmp eq i32 %23, 66
  br i1 %24, label %28, label %25

25:                                               ; preds = %8
  %26 = load i32, ptr %11, align 4, !tbaa !59
  %27 = icmp eq i32 %26, 64
  br label %28

28:                                               ; preds = %25, %8
  %29 = phi i1 [ true, %8 ], [ %27, %25 ]
  %30 = select i1 %29, i32 61440, i32 45056
  store i32 %30, ptr %21, align 4, !tbaa !59
  %31 = load i32, ptr %17, align 4, !tbaa !59
  %32 = add nsw i32 8, %31
  %33 = add nsw i32 %32, 4
  store i32 %33, ptr %20, align 4, !tbaa !59
  %34 = load i32, ptr %20, align 4, !tbaa !59
  %35 = icmp ugt i32 %34, 1024
  br i1 %35, label %36, label %37

36:                                               ; preds = %28
  store i32 -1094995529, ptr %9, align 4
  store i32 1, ptr %22, align 4
  br label %70

37:                                               ; preds = %28
  %38 = getelementptr inbounds [1024 x i8], ptr %18, i64 0, i64 0
  store ptr %38, ptr %19, align 8, !tbaa !13
  %39 = load i32, ptr %11, align 4, !tbaa !59
  %40 = trunc i32 %39 to i8
  %41 = load ptr, ptr %19, align 8, !tbaa !13
  %42 = getelementptr inbounds nuw i8, ptr %41, i32 1
  store ptr %42, ptr %19, align 8, !tbaa !13
  store i8 %40, ptr %41, align 1, !tbaa !23
  %43 = load i32, ptr %21, align 4, !tbaa !59
  %44 = load i32, ptr %17, align 4, !tbaa !59
  %45 = add nsw i32 %44, 5
  %46 = add nsw i32 %45, 4
  %47 = or i32 %43, %46
  call void @put16(ptr noundef %19, i32 noundef %47)
  %48 = load i32, ptr %12, align 4, !tbaa !59
  call void @put16(ptr noundef %19, i32 noundef %48)
  %49 = load i32, ptr %13, align 4, !tbaa !59
  %50 = shl i32 %49, 1
  %51 = or i32 193, %50
  %52 = trunc i32 %51 to i8
  %53 = load ptr, ptr %19, align 8, !tbaa !13
  %54 = getelementptr inbounds nuw i8, ptr %53, i32 1
  store ptr %54, ptr %19, align 8, !tbaa !13
  store i8 %52, ptr %53, align 1, !tbaa !23
  %55 = load i32, ptr %14, align 4, !tbaa !59
  %56 = trunc i32 %55 to i8
  %57 = load ptr, ptr %19, align 8, !tbaa !13
  %58 = getelementptr inbounds nuw i8, ptr %57, i32 1
  store ptr %58, ptr %19, align 8, !tbaa !13
  store i8 %56, ptr %57, align 1, !tbaa !23
  %59 = load i32, ptr %15, align 4, !tbaa !59
  %60 = trunc i32 %59 to i8
  %61 = load ptr, ptr %19, align 8, !tbaa !13
  %62 = getelementptr inbounds nuw i8, ptr %61, i32 1
  store ptr %62, ptr %19, align 8, !tbaa !13
  store i8 %60, ptr %61, align 1, !tbaa !23
  %63 = load ptr, ptr %19, align 8, !tbaa !13
  %64 = load ptr, ptr %16, align 8, !tbaa !13
  %65 = load i32, ptr %17, align 4, !tbaa !59
  %66 = sext i32 %65 to i64
  call void @llvm.memcpy.p0.p0.i64(ptr align 1 %63, ptr align 1 %64, i64 %66, i1 false)
  %67 = load ptr, ptr %10, align 8, !tbaa !223
  %68 = getelementptr inbounds [1024 x i8], ptr %18, i64 0, i64 0
  %69 = load i32, ptr %20, align 4, !tbaa !59
  call void @mpegts_write_section(ptr noundef %67, ptr noundef %68, i32 noundef %69)
  store i32 0, ptr %9, align 4
  store i32 1, ptr %22, align 4
  br label %70

70:                                               ; preds = %37, %36
  call void @llvm.lifetime.end.p0(i64 4, ptr %21) #13
  call void @llvm.lifetime.end.p0(i64 4, ptr %20) #13
  call void @llvm.lifetime.end.p0(i64 8, ptr %19) #13
  call void @llvm.lifetime.end.p0(i64 1024, ptr %18) #13
  %71 = load i32, ptr %9, align 4
  ret i32 %71
}