; Function Attrs: nounwind uwtable
define internal fastcc void @mpegts_write_section1(ptr noundef %0, i32 noundef range(i32 0, 67) %1, i32 noundef %2, i32 noundef %3, ptr noundef nonnull readonly captures(none) %4, i32 noundef %5) unnamed_addr #0 {
  %7 = alloca [188 x i8], align 16
  %8 = alloca [1024 x i8], align 16
  call void @llvm.lifetime.start.p0(i64 1024, ptr nonnull %8) #12
  %9 = add nsw i32 %5, 12
  %10 = icmp ugt i32 %9, 1024
  br i1 %10, label %98, label %11

11:                                               ; preds = %6
  %12 = and i32 %1, 125
  %13 = icmp eq i32 %12, 64
  %14 = select i1 %13, i32 61440, i32 45056
  %15 = trunc nuw nsw i32 %1 to i8
  %16 = getelementptr inbounds nuw i8, ptr %8, i64 1
  store i8 %15, ptr %8, align 16, !tbaa !21
  %17 = add nsw i32 %5, 9
  %18 = or i32 %17, %14
  %19 = lshr i32 %18, 8
  %20 = trunc i32 %19 to i8
  %21 = getelementptr inbounds nuw i8, ptr %8, i64 2
  store i8 %20, ptr %16, align 1, !tbaa !21
  %22 = trunc i32 %17 to i8
  %23 = getelementptr inbounds nuw i8, ptr %8, i64 3
  store i8 %22, ptr %21, align 2, !tbaa !21
  %24 = lshr i32 %2, 8
  %25 = trunc i32 %24 to i8
  %26 = getelementptr inbounds nuw i8, ptr %8, i64 4
  store i8 %25, ptr %23, align 1, !tbaa !21
  %27 = trunc i32 %2 to i8
  %28 = getelementptr inbounds nuw i8, ptr %8, i64 5
  store i8 %27, ptr %26, align 4, !tbaa !21
  %.tr = trunc i32 %3 to i8
  %29 = shl i8 %.tr, 1
  %30 = or i8 %29, -63
  %31 = getelementptr inbounds nuw i8, ptr %8, i64 6
  store i8 %30, ptr %28, align 1, !tbaa !21
  %32 = getelementptr inbounds nuw i8, ptr %8, i64 7
  store i8 0, ptr %31, align 2, !tbaa !21
  %33 = getelementptr inbounds nuw i8, ptr %8, i64 8
  store i8 0, ptr %32, align 1, !tbaa !21
  %34 = sext i32 %5 to i64
  call void @llvm.memcpy.p0.p0.i64(ptr nonnull align 8 %33, ptr nonnull align 1 %4, i64 %34, i1 false)
  call void @llvm.lifetime.start.p0(i64 188, ptr nonnull %7) #12
  %35 = tail call ptr @av_crc_get_table(i32 noundef 3) #12
  %36 = add nsw i32 %5, 8
  %37 = sext i32 %36 to i64
  %38 = call i32 @av_crc(ptr noundef %35, i32 noundef -1, ptr noundef nonnull %8, i64 noundef %37) #15
  %39 = call i32 @llvm.bswap.i32(i32 %38)
  %40 = lshr i32 %39, 24
  %41 = trunc nuw i32 %40 to i8
  %42 = getelementptr inbounds i8, ptr %8, i64 %37
  store i8 %41, ptr %42, align 1, !tbaa !21
  %43 = lshr i32 %39, 16
  %44 = trunc i32 %43 to i8
  %45 = zext nneg i32 %9 to i64
  %46 = getelementptr i8, ptr %8, i64 %45
  %47 = getelementptr i8, ptr %46, i64 -3
  store i8 %44, ptr %47, align 1, !tbaa !21
  %48 = lshr i32 %39, 8
  %49 = trunc i32 %48 to i8
  %50 = getelementptr i8, ptr %46, i64 -2
  store i8 %49, ptr %50, align 1, !tbaa !21
  %51 = trunc i32 %39 to i8
  %52 = getelementptr i8, ptr %46, i64 -1
  store i8 %51, ptr %52, align 1, !tbaa !21
  %.not65.i = icmp eq i32 %9, 0
  br i1 %.not65.i, label %mpegts_write_section.exit, label %.lr.ph.i

.lr.ph.i:                                         ; preds = %11
  %53 = getelementptr inbounds nuw i8, ptr %7, i64 1
  %54 = getelementptr inbounds nuw i8, ptr %7, i64 2
  %55 = getelementptr inbounds nuw i8, ptr %7, i64 3
  %56 = getelementptr inbounds nuw i8, ptr %0, i64 4
  %57 = getelementptr inbounds nuw i8, ptr %7, i64 4
  %58 = getelementptr inbounds nuw i8, ptr %0, i64 8
  %59 = getelementptr inbounds nuw i8, ptr %7, i64 5
  %60 = getelementptr inbounds nuw i8, ptr %7, i64 6
  %61 = ptrtoint ptr %7 to i64
  %62 = getelementptr inbounds nuw i8, ptr %0, i64 16
  br label %63

63:                                               ; preds = %93, %.lr.ph.i
  %.064.i = phi i32 [ %9, %.lr.ph.i ], [ %96, %93 ]
  %.05763.i = phi ptr [ %8, %.lr.ph.i ], [ %95, %93 ]
  %64 = icmp eq ptr %8, %.05763.i
  store i8 71, ptr %7, align 16, !tbaa !21
  %65 = load i32, ptr %0, align 8, !tbaa !207
  %66 = ashr i32 %65, 8
  %67 = or i32 %66, 64
  %spec.select.i = select i1 %64, i32 %67, i32 %66
  %68 = trunc i32 %spec.select.i to i8
  store i8 %68, ptr %53, align 1, !tbaa !21
  %69 = trunc i32 %65 to i8
  store i8 %69, ptr %54, align 2, !tbaa !21
  %70 = load i32, ptr %56, align 4, !tbaa !208
  %71 = add nsw i32 %70, 1
  %72 = and i32 %71, 15
  store i32 %72, ptr %56, align 4, !tbaa !208
  %73 = trunc nuw nsw i32 %72 to i8
  %74 = or disjoint i8 %73, 16
  store i8 %74, ptr %55, align 1, !tbaa !21
  %75 = load i32, ptr %58, align 8, !tbaa !209
  %.not.i = icmp eq i32 %75, 0
  br i1 %.not.i, label %78, label %76

76:                                               ; preds = %63
  %77 = or disjoint i8 %73, 48
  store i8 %77, ptr %55, align 1, !tbaa !21
  store i8 1, ptr %57, align 4, !tbaa !21
  store i8 -128, ptr %59, align 1, !tbaa !21
  store i32 0, ptr %58, align 8, !tbaa !209
  br label %78

78:                                               ; preds = %76, %63
  %.058.i = phi ptr [ %60, %76 ], [ %57, %63 ]
  br i1 %64, label %79, label %81

79:                                               ; preds = %78
  %80 = getelementptr inbounds nuw i8, ptr %.058.i, i64 1
  store i8 0, ptr %.058.i, align 1, !tbaa !21
  br label %81

81:                                               ; preds = %79, %78
  %.1.i = phi ptr [ %80, %79 ], [ %.058.i, %78 ]
  %82 = ptrtoint ptr %.1.i to i64
  %.neg.i = sub i64 %61, %82
  %83 = trunc i64 %.neg.i to i32
  %84 = add i32 %83, 188
  %spec.select62.i = call i32 @llvm.smin.i32(i32 %84, i32 %.064.i)
  %85 = sext i32 %spec.select62.i to i64
  call void @llvm.memcpy.p0.p0.i64(ptr nonnull align 1 %.1.i, ptr align 1 %.05763.i, i64 %85, i1 false)
  %86 = getelementptr inbounds i8, ptr %.1.i, i64 %85
  %87 = ptrtoint ptr %86 to i64
  %.neg61.i = sub i64 %61, %87
  %88 = trunc i64 %.neg61.i to i32
  %89 = add i32 %88, 188
  %90 = icmp sgt i32 %89, 0
  br i1 %90, label %91, label %93

91:                                               ; preds = %81
  %92 = zext nneg i32 %89 to i64
  call void @llvm.memset.p0.i64(ptr align 1 %86, i8 -1, i64 %92, i1 false)
  br label %93

93:                                               ; preds = %91, %81
  %94 = load ptr, ptr %62, align 8, !tbaa !210
  call void %94(ptr noundef nonnull %0, ptr noundef nonnull %7) #12
  %95 = getelementptr inbounds i8, ptr %.05763.i, i64 %85
  %96 = sub nsw i32 %.064.i, %spec.select62.i
  %97 = icmp sgt i32 %96, 0
  br i1 %97, label %63, label %mpegts_write_section.exit, !llvm.loop !211

mpegts_write_section.exit:                        ; preds = %93, %11
  call void @llvm.lifetime.end.p0(i64 188, ptr nonnull %7) #12
  br label %98

98:                                               ; preds = %6, %mpegts_write_section.exit
  call void @llvm.lifetime.end.p0(i64 1024, ptr nonnull %8) #12
  ret void
}